target datalayout = "e-m:e-p270:32:32-p271:32:32-p272:64:64-i64:64-i128:128-f80:128-n8:16:32:64-S128"
target triple = "x86_64-pc-linux-gnu"

%struct.H5O_copy_dtype_merge_list_t = type { ptr, ptr }

@H5_H5O_copy_dtype_merge_list_t_reg_free_list = global { i8, [3 x i8], i32, i32, [4 x i8], ptr, i64, ptr } { i8 0, [3 x i8] zeroinitializer, i32 0, i32 0, [4 x i8] zeroinitializer, ptr @.str.1, i64 16, ptr null }, align 8
@H5_libterm_g = external global i8, align 1
@H5P_init_g = external global i8, align 1

; Function Attrs: nounwind uwtable
define internal ptr @H5P__free_merge_comm_dtype_list(ptr noundef %0) #0 {
  %2 = alloca ptr, align 8
  %3 = alloca ptr, align 8
  store ptr %0, ptr %2, align 8, !tbaa !22
  %4 = load i8, ptr @H5P_init_g, align 1, !tbaa !10, !range !12, !noundef !13
  %5 = trunc i8 %4 to i1
  br i1 %5, label %10, label %6

6:                                                ; preds = %1
  %7 = load i8, ptr @H5_libterm_g, align 1, !tbaa !10, !range !12, !noundef !13
  %8 = trunc i8 %7 to i1
  %9 = xor i1 %8, true
  br label %10

10:                                               ; preds = %6, %1
  %11 = phi i1 [ true, %1 ], [ %9, %6 ]
  %12 = xor i1 %11, true
  %13 = xor i1 %12, true
  %14 = zext i1 %13 to i32
  %15 = sext i32 %14 to i64
  %16 = call i64 @llvm.expect.i64(i64 %15, i64 1)
  %17 = icmp ne i64 %16, 0
  br i1 %17, label %18, label %34

18:                                               ; preds = %10
  br label %19

19:                                               ; preds = %22, %18
  %20 = load ptr, ptr %2, align 8, !tbaa !22
  %21 = icmp ne ptr %20, null
  br i1 %21, label %22, label %33

22:                                               ; preds = %19
  call void @llvm.lifetime.start.p0(i64 8, ptr %3) #7
  %23 = load ptr, ptr %2, align 8, !tbaa !22
  %24 = getelementptr inbounds nuw %struct.H5O_copy_dtype_merge_list_t, ptr %23, i32 0, i32 1
  %25 = load ptr, ptr %24, align 8, !tbaa !27
  store ptr %25, ptr %3, align 8, !tbaa !22
  %26 = load ptr, ptr %2, align 8, !tbaa !22
  %27 = getelementptr inbounds nuw %struct.H5O_copy_dtype_merge_list_t, ptr %26, i32 0, i32 0
  %28 = load ptr, ptr %27, align 8, !tbaa !25
  %29 = call ptr @H5MM_xfree(ptr noundef %28)
  %30 = load ptr, ptr %2, align 8, !tbaa !22
  %31 = call ptr @H5FL_reg_free(ptr noundef @H5_H5O_copy_dtype_merge_list_t_reg_free_list, ptr noundef %30)
  %32 = load ptr, ptr %3, align 8, !tbaa !22
  store ptr %32, ptr %2, align 8, !tbaa !22
  call void @llvm.lifetime.end.p0(i64 8, ptr %3) #7
  br label %19, !llvm.loop !28

33:                                               ; preds = %19
  br label %34

34:                                               ; preds = %33, %10
  ret ptr null
}

; Function Attrs: nounwind uwtable
define internal i32 @H5P__ocpy_merge_comm_dt_list_del(i64 noundef %0, ptr noundef %1, i64 noundef %2, ptr noundef %3) #0 {
  %5 = alloca i64, align 8
  %6 = alloca ptr, align 8
  %7 = alloca i64, align 8
  %8 = alloca ptr, align 8
  store i64 %0, ptr %5, align 8, !tbaa !14
  store ptr %1, ptr %6, align 8, !tbaa !20
  store i64 %2, ptr %7, align 8, !tbaa !14
  store ptr %3, ptr %8, align 8, !tbaa !30
  %9 = load i8, ptr @H5P_init_g, align 1, !tbaa !10, !range !12, !noundef !13
  %10 = trunc i8 %9 to i1
  br i1 %10, label %15, label %11

11:                                               ; preds = %4
  %12 = load i8, ptr @H5_libterm_g, align 1, !tbaa !10, !range !12, !noundef !13
  %13 = trunc i8 %12 to i1
  %14 = xor i1 %13, true
  br label %15

15:                                               ; preds = %11, %4
  %16 = phi i1 [ true, %4 ], [ %14, %11 ]
  %17 = xor i1 %16, true
  %18 = xor i1 %17, true
  %19 = zext i1 %18 to i32
  %20 = sext i32 %19 to i64
  %21 = call i64 @llvm.expect.i64(i64 %20, i64 1)
  %22 = icmp ne i64 %21, 0
  br i1 %22, label %23, label %27

23:                                               ; preds = %15
  %24 = load ptr, ptr %8, align 8, !tbaa !30
  %25 = load ptr, ptr %24, align 8, !tbaa !22
  %26 = call ptr @H5P__free_merge_comm_dtype_list(ptr noundef %25)
  br label %27

27:                                               ; preds = %23, %15
  ret i32 0
}