; Function Attrs: nounwind uwtable
define internal noundef i32 @H5P__ocpy_merge_comm_dt_list_del(i64 %0, ptr readnone captures(none) %1, i64 %2, ptr noundef readonly captures(none) %3) #0 {
  %5 = load i8, ptr @H5P_init_g, align 1, !tbaa !3, !range !7, !noundef !8
  %6 = trunc nuw i8 %5 to i1
  %7 = load i8, ptr @H5_libterm_g, align 1, !range !7
  %8 = trunc nuw i8 %7 to i1
  %9 = xor i1 %8, true
  %10 = select i1 %6, i1 true, i1 %9
  br i1 %10, label %11, label %H5P__free_merge_comm_dtype_list.exit, !prof !9

11:                                               ; preds = %4
  %12 = load ptr, ptr %3, align 8, !tbaa !18
  %.not = icmp eq ptr %12, null
  br i1 %.not, label %H5P__free_merge_comm_dtype_list.exit, label %.preheader.i, !prof !38

.preheader.i:                                     ; preds = %11, %.preheader.i
  %.0.i = phi ptr [ %14, %.preheader.i ], [ %12, %11 ]
  %13 = getelementptr inbounds nuw i8, ptr %.0.i, i64 8
  %14 = load ptr, ptr %13, align 8, !tbaa !26
  %15 = load ptr, ptr %.0.i, align 8, !tbaa !23
  %16 = tail call ptr @H5MM_xfree(ptr noundef %15) #8
  %17 = tail call ptr @H5FL_reg_free(ptr noundef nonnull @H5_H5O_copy_dtype_merge_list_t_reg_free_list, ptr noundef nonnull %.0.i) #8
  %.old1.not.i = icmp eq ptr %14, null
  br i1 %.old1.not.i, label %H5P__free_merge_comm_dtype_list.exit, label %.preheader.i

H5P__free_merge_comm_dtype_list.exit:             ; preds = %.preheader.i, %11, %4
  ret i32 0
}